; Function Attrs: mustprogress nounwind uwtable
define hidden void @_ZN14ZRelocateQueue12add_and_waitEP11ZForwarding(ptr noundef nonnull align 8 dereferenceable(120) %0, ptr noundef %1) local_unnamed_addr #1 align 2 {
  %3 = alloca %class.TimeInstant, align 8
  %4 = alloca ptr, align 8
  %5 = alloca %class.ZStatTimer, align 8
  store ptr %1, ptr %4, align 8
  store ptr null, ptr %5, align 8
  %6 = getelementptr inbounds i8, ptr %5, i64 8
  store ptr @_ZL29ZCriticalPhaseRelocationStall, ptr %6, align 8
  %7 = getelementptr inbounds i8, ptr %5, i64 16
  %8 = tail call { i64, i64 } @_ZN29CompositeElapsedCounterSource3nowEv() #14
  %9 = extractvalue { i64, i64 } %8, 0
  store i64 %9, ptr %7, align 8
  %10 = getelementptr inbounds i8, ptr %5, i64 24
  %11 = extractvalue { i64, i64 } %8, 1
  store i64 %11, ptr %10, align 8
  %12 = load ptr, ptr @_ZL29ZCriticalPhaseRelocationStall, align 8
  %13 = load ptr, ptr %12, align 8
  call void %13(ptr noundef nonnull align 8 dereferenceable(48) @_ZL29ZCriticalPhaseRelocationStall, ptr noundef null, ptr noundef nonnull align 8 dereferenceable(16) %7) #14
  %14 = call i32 @pthread_mutex_lock(ptr noundef nonnull %0) #14
  %15 = call noundef zeroext i1 @_ZNK11ZForwarding7is_doneEv(ptr noundef nonnull align 8 dereferenceable(184) %1) #14
  br i1 %15, label %_ZN7ZLockerI14ZConditionLockED2Ev.exit, label %16

16:                                               ; preds = %2
  %17 = getelementptr inbounds i8, ptr %0, i64 88
  %18 = call noundef i32 @_ZN26GrowableArrayWithAllocatorIP11ZForwarding18GrowableArrayCHeapIS1_L8MEMFLAGS5EEE6appendERKS1_(ptr noundef nonnull align 8 dereferenceable(16) %17, ptr noundef nonnull align 8 dereferenceable(8) %4)
  %19 = load i32, ptr %17, align 8
  %20 = icmp eq i32 %19, 1
  br i1 %20, label %21, label %26

21:                                               ; preds = %16
  %22 = getelementptr inbounds i8, ptr %0, i64 116
  %23 = call noundef i32 asm sideeffect "lock xaddl $0,($2)", "=r,0,r,~{cc},~{memory},~{dirflag},~{fpsr},~{flags}"(i32 1, ptr nonnull %22) #14, !srcloc !6
  %24 = getelementptr inbounds i8, ptr %0, i64 40
  %25 = call i32 @pthread_cond_broadcast(ptr noundef nonnull %24) #14
  br label %26

26:                                               ; preds = %21, %16
  %27 = load ptr, ptr %4, align 8
  %28 = call noundef zeroext i1 @_ZNK11ZForwarding7is_doneEv(ptr noundef nonnull align 8 dereferenceable(184) %27) #14
  br i1 %28, label %_ZN7ZLockerI14ZConditionLockED2Ev.exit, label %.lr.ph

.lr.ph:                                           ; preds = %26, %.lr.ph
  %29 = call noundef i32 @_ZN15PlatformMonitor4waitEm(ptr noundef nonnull align 8 dereferenceable(88) %0, i64 noundef 0) #14
  %30 = load ptr, ptr %4, align 8
  %31 = call noundef zeroext i1 @_ZNK11ZForwarding7is_doneEv(ptr noundef nonnull align 8 dereferenceable(184) %30) #14
  br i1 %31, label %_ZN7ZLockerI14ZConditionLockED2Ev.exit, label %.lr.ph, !llvm.loop !9

_ZN7ZLockerI14ZConditionLockED2Ev.exit:           ; preds = %.lr.ph, %26, %2
  %32 = call i32 @pthread_mutex_unlock(ptr noundef nonnull %0) #14
  call void @llvm.lifetime.start.p0(i64 16, ptr nonnull %3)
  %33 = call { i64, i64 } @_ZN29CompositeElapsedCounterSource3nowEv() #14
  %34 = extractvalue { i64, i64 } %33, 0
  store i64 %34, ptr %3, align 8
  %35 = getelementptr inbounds i8, ptr %3, i64 8
  %36 = extractvalue { i64, i64 } %33, 1
  store i64 %36, ptr %35, align 8
  %37 = load ptr, ptr %6, align 8
  %38 = load ptr, ptr %5, align 8
  %39 = load ptr, ptr %37, align 8
  %40 = getelementptr inbounds i8, ptr %39, i64 8
  %41 = load ptr, ptr %40, align 8
  call void %41(ptr noundef nonnull align 8 dereferenceable(48) %37, ptr noundef %38, ptr noundef nonnull align 8 dereferenceable(16) %7, ptr noundef nonnull align 8 dereferenceable(16) %3) #14
  call void @llvm.lifetime.end.p0(i64 16, ptr nonnull %3)
  ret void
}